; ModuleID = 'source-C-CXX/52/1260.c'
source_filename = "source-C-CXX/52/1260.c"
target datalayout = "e-m:e-p270:32:32-p271:32:32-p272:64:64-i64:64-f80:128-n8:16:32:64-S128"
target triple = "x86_64-pc-linux-gnu"

@.str = private unnamed_addr constant [3 x i8] c"%d\00", align 1
@.str.1 = private unnamed_addr constant [4 x i8] c",%d\00", align 1

; Function Attrs: nofree nounwind sspstrong uwtable
define dso_local i32 @main() local_unnamed_addr #0 {
  %1 = alloca i32, align 4
  %2 = alloca [300 x i32], align 16
  %3 = bitcast i32* %1 to i8*
  call void @llvm.lifetime.start.p0i8(i64 4, i8* nonnull %3) #3
  %4 = bitcast [300 x i32]* %2 to i8*
  call void @llvm.lifetime.start.p0i8(i64 1200, i8* nonnull %4) #3
  %5 = call i32 (i8*, ...) @__isoc99_scanf(i8* getelementptr inbounds ([3 x i8], [3 x i8]* @.str, i64 0, i64 0), i32* nonnull %1)
  %6 = load i32, i32* %1, align 4, !tbaa !5
  %7 = icmp sgt i32 %6, 0
  br i1 %7, label %12, label %51

8:                                                ; preds = %12
  %9 = icmp sgt i32 %17, 1
  br i1 %9, label %10, label %51

10:                                               ; preds = %8
  %11 = zext i32 %17 to i64
  br label %20

12:                                               ; preds = %0, %12
  %13 = phi i64 [ %16, %12 ], [ 0, %0 ]
  %14 = getelementptr inbounds [300 x i32], [300 x i32]* %2, i64 0, i64 %13
  %15 = call i32 (i8*, ...) @__isoc99_scanf(i8* getelementptr inbounds ([3 x i8], [3 x i8]* @.str, i64 0, i64 0), i32* nonnull %14)
  %16 = add nuw nsw i64 %13, 1
  %17 = load i32, i32* %1, align 4, !tbaa !5
  %18 = sext i32 %17 to i64
  %19 = icmp slt i64 %16, %18
  br i1 %19, label %12, label %8, !llvm.loop !9

20:                                               ; preds = %10, %47
  %21 = phi i64 [ 1, %10 ], [ %49, %47 ]
  %22 = phi i32 [ 1, %10 ], [ %48, %47 ]
  %23 = icmp sgt i32 %22, 0
  br i1 %23, label %24, label %38

24:                                               ; preds = %20
  %25 = getelementptr inbounds [300 x i32], [300 x i32]* %2, i64 0, i64 %21
  %26 = load i32, i32* %25, align 4, !tbaa !5
  %27 = zext i32 %22 to i64
  br label %28

28:                                               ; preds = %24, %33
  %29 = phi i64 [ 0, %24 ], [ %34, %33 ]
  %30 = getelementptr inbounds [300 x i32], [300 x i32]* %2, i64 0, i64 %29
  %31 = load i32, i32* %30, align 4, !tbaa !5
  %32 = icmp eq i32 %31, %26
  br i1 %32, label %36, label %33

33:                                               ; preds = %28
  %34 = add nuw nsw i64 %29, 1
  %35 = icmp eq i64 %34, %27
  br i1 %35, label %41, label %28, !llvm.loop !11

36:                                               ; preds = %28
  %37 = trunc i64 %29 to i32
  br label %38

38:                                               ; preds = %36, %20
  %39 = phi i32 [ 0, %20 ], [ %37, %36 ]
  %40 = icmp eq i32 %39, %22
  br i1 %40, label %41, label %47

41:                                               ; preds = %33, %38
  %42 = getelementptr inbounds [300 x i32], [300 x i32]* %2, i64 0, i64 %21
  %43 = load i32, i32* %42, align 4, !tbaa !5
  %44 = sext i32 %22 to i64
  %45 = getelementptr inbounds [300 x i32], [300 x i32]* %2, i64 0, i64 %44
  store i32 %43, i32* %45, align 4, !tbaa !5
  %46 = add nsw i32 %22, 1
  br label %47

47:                                               ; preds = %38, %41
  %48 = phi i32 [ %46, %41 ], [ %22, %38 ]
  %49 = add nuw nsw i64 %21, 1
  %50 = icmp eq i64 %49, %11
  br i1 %50, label %51, label %20, !llvm.loop !12

51:                                               ; preds = %47, %0, %8
  %52 = phi i32 [ 1, %8 ], [ 1, %0 ], [ %48, %47 ]
  %53 = getelementptr inbounds [300 x i32], [300 x i32]* %2, i64 0, i64 0
  %54 = load i32, i32* %53, align 16, !tbaa !5
  %55 = call i32 (i8*, ...) @printf(i8* nonnull dereferenceable(1) getelementptr inbounds ([3 x i8], [3 x i8]* @.str, i64 0, i64 0), i32 %54)
  %56 = icmp sgt i32 %52, 1
  br i1 %56, label %57, label %66

57:                                               ; preds = %51
  %58 = zext i32 %52 to i64
  br label %59

59:                                               ; preds = %57, %59
  %60 = phi i64 [ 1, %57 ], [ %64, %59 ]
  %61 = getelementptr inbounds [300 x i32], [300 x i32]* %2, i64 0, i64 %60
  %62 = load i32, i32* %61, align 4, !tbaa !5
  %63 = call i32 (i8*, ...) @printf(i8* nonnull dereferenceable(1) getelementptr inbounds ([4 x i8], [4 x i8]* @.str.1, i64 0, i64 0), i32 %62)
  %64 = add nuw nsw i64 %60, 1
  %65 = icmp eq i64 %64, %58
  br i1 %65, label %66, label %59, !llvm.loop !13

66:                                               ; preds = %59, %51
  call void @llvm.lifetime.end.p0i8(i64 1200, i8* nonnull %4) #3
  call void @llvm.lifetime.end.p0i8(i64 4, i8* nonnull %3) #3
  ret i32 0
}

; Function Attrs: argmemonly mustprogress nofree nosync nounwind willreturn
declare void @llvm.lifetime.start.p0i8(i64 immarg, i8* nocapture) #1

; Function Attrs: nofree nounwind
declare noundef i32 @__isoc99_scanf(i8* nocapture noundef readonly, ...) local_unnamed_addr #2

; Function Attrs: nofree nounwind
declare noundef i32 @printf(i8* nocapture noundef readonly, ...) local_unnamed_addr #2

; Function Attrs: argmemonly mustprogress nofree nosync nounwind willreturn
declare void @llvm.lifetime.end.p0i8(i64 immarg, i8* nocapture) #1


!llvm.module.flags = !{!0, !1, !2, !3}
!llvm.ident = !{!4}

!0 = !{i32 1, !"wchar_size", i32 4}
!1 = !{i32 7, !"PIC Level", i32 2}
!2 = !{i32 7, !"PIE Level", i32 2}
!3 = !{i32 7, !"uwtable", i32 1}
!4 = !{!"clang version 13.0.0"}
!5 = !{!6, !6, i64 0}
!6 = !{!"int", !7, i64 0}
!7 = !{!"omnipotent char", !8, i64 0}
!8 = !{!"Simple C/C++ TBAA"}
!9 = distinct !{!9, !10}
!10 = !{!"llvm.loop.mustprogress"}
!11 = distinct !{!11, !10}
!12 = distinct !{!12, !10}
!13 = distinct !{!13, !10}
